target datalayout = "e-m:e-p270:32:32-p271:32:32-p272:64:64-i64:64-i128:128-f80:128-n8:16:32:64-S128"
target triple = "x86_64-pc-linux-gnu"

%"struct.duckdb_zstd::ZDICT_params_t" = type { i32, i32, i32 }
%"struct.duckdb_zstd::ZDICT_fastCover_params_t" = type { i32, i32, i32, i32, i32, double, i32, i32, i32, %"struct.duckdb_zstd::ZDICT_params_t" }

; Function Attrs: mustprogress uwtable
define noundef i64 @_ZN11duckdb_zstd21ZDICT_trainFromBufferEPvmPKvPKmj(ptr noundef %0, i64 noundef %1, ptr noundef %2, ptr noundef %3, i32 noundef %4) #0 {
  %6 = alloca ptr, align 8
  %7 = alloca i64, align 8
  %8 = alloca ptr, align 8
  %9 = alloca ptr, align 8
  %10 = alloca i32, align 4
  %11 = alloca %"struct.duckdb_zstd::ZDICT_fastCover_params_t", align 8
  store ptr %0, ptr %6, align 8, !tbaa !7
  store i64 %1, ptr %7, align 8, !tbaa !3
  store ptr %2, ptr %8, align 8, !tbaa !7
  store ptr %3, ptr %9, align 8, !tbaa !11
  store i32 %4, ptr %10, align 4, !tbaa !13
  call void @llvm.lifetime.start.p0(i64 56, ptr %11) #11
  br label %12

12:                                               ; preds = %5
  br label %13

13:                                               ; preds = %12
  br label %14

14:                                               ; preds = %13
  call void @llvm.memset.p0.i64(ptr align 8 %11, i8 0, i64 56, i1 false)
  %15 = getelementptr inbounds nuw %"struct.duckdb_zstd::ZDICT_fastCover_params_t", ptr %11, i32 0, i32 1
  store i32 8, ptr %15, align 4, !tbaa !65
  %16 = getelementptr inbounds nuw %"struct.duckdb_zstd::ZDICT_fastCover_params_t", ptr %11, i32 0, i32 3
  store i32 4, ptr %16, align 4, !tbaa !68
  %17 = getelementptr inbounds nuw %"struct.duckdb_zstd::ZDICT_fastCover_params_t", ptr %11, i32 0, i32 9
  %18 = getelementptr inbounds nuw %"struct.duckdb_zstd::ZDICT_params_t", ptr %17, i32 0, i32 0
  store i32 3, ptr %18, align 4, !tbaa !69
  %19 = load ptr, ptr %6, align 8, !tbaa !7
  %20 = load i64, ptr %7, align 8, !tbaa !3
  %21 = load ptr, ptr %8, align 8, !tbaa !7
  %22 = load ptr, ptr %9, align 8, !tbaa !11
  %23 = load i32, ptr %10, align 4, !tbaa !13
  %24 = call noundef i64 @_ZN11duckdb_zstd39ZDICT_optimizeTrainFromBuffer_fastCoverEPvmPKvPKmjPNS_24ZDICT_fastCover_params_tE(ptr noundef %19, i64 noundef %20, ptr noundef %21, ptr noundef %22, i32 noundef %23, ptr noundef %11)
  call void @llvm.lifetime.end.p0(i64 56, ptr %11) #11
  ret i64 %24
}